target datalayout = "e-m:e-p270:32:32-p271:32:32-p272:64:64-i64:64-i128:128-f80:128-n8:16:32:64-S128"
target triple = "x86_64-pc-linux-gnu"

@.str.10 = private unnamed_addr constant [7 x i8] c"master\00", align 1
@.str.11 = private unnamed_addr constant [8 x i8] c"replica\00", align 1
@.str.238 = private unnamed_addr constant [7 x i8] c"normal\00", align 1
@.str.239 = private unnamed_addr constant [6 x i8] c"slave\00", align 1
@.str.240 = private unnamed_addr constant [7 x i8] c"pubsub\00", align 1

; Function Attrs: nounwind uwtable
define dso_local i32 @getClientTypeByName(ptr noundef %0) #0 {
  %2 = alloca i32, align 4
  %3 = alloca ptr, align 8
  store ptr %0, ptr %3, align 8, !tbaa !5
  %4 = load ptr, ptr %3, align 8, !tbaa !5
  %5 = call i32 @strcasecmp(ptr noundef %4, ptr noundef @.str.238) #20
  %6 = icmp ne i32 %5, 0
  br i1 %6, label %8, label %7

7:                                                ; preds = %1
  store i32 0, ptr %2, align 4
  br label %29

8:                                                ; preds = %1
  %9 = load ptr, ptr %3, align 8, !tbaa !5
  %10 = call i32 @strcasecmp(ptr noundef %9, ptr noundef @.str.239) #20
  %11 = icmp ne i32 %10, 0
  br i1 %11, label %13, label %12

12:                                               ; preds = %8
  store i32 1, ptr %2, align 4
  br label %29

13:                                               ; preds = %8
  %14 = load ptr, ptr %3, align 8, !tbaa !5
  %15 = call i32 @strcasecmp(ptr noundef %14, ptr noundef @.str.11) #20
  %16 = icmp ne i32 %15, 0
  br i1 %16, label %18, label %17

17:                                               ; preds = %13
  store i32 1, ptr %2, align 4
  br label %29

18:                                               ; preds = %13
  %19 = load ptr, ptr %3, align 8, !tbaa !5
  %20 = call i32 @strcasecmp(ptr noundef %19, ptr noundef @.str.240) #20
  %21 = icmp ne i32 %20, 0
  br i1 %21, label %23, label %22

22:                                               ; preds = %18
  store i32 2, ptr %2, align 4
  br label %29

23:                                               ; preds = %18
  %24 = load ptr, ptr %3, align 8, !tbaa !5
  %25 = call i32 @strcasecmp(ptr noundef %24, ptr noundef @.str.10) #20
  %26 = icmp ne i32 %25, 0
  br i1 %26, label %28, label %27

27:                                               ; preds = %23
  store i32 3, ptr %2, align 4
  br label %29

28:                                               ; preds = %23
  store i32 -1, ptr %2, align 4
  br label %29

29:                                               ; preds = %28, %27, %22, %17, %12, %7
  %30 = load i32, ptr %2, align 4
  ret i32 %30
}