; Function Attrs: mustprogress nofree nounwind willreturn memory(read) uwtable
define dso_local range(i32 -1, 4) i32 @getClientTypeByName(ptr noundef readonly captures(none) %0) local_unnamed_addr #21 {
  %2 = tail call i32 @strcasecmp(ptr noundef %0, ptr noundef nonnull @.str.238) #30
  %.not = icmp eq i32 %2, 0
  br i1 %.not, label %11, label %3

3:                                                ; preds = %1
  %4 = tail call i32 @strcasecmp(ptr noundef %0, ptr noundef nonnull @.str.239) #30
  %.not5 = icmp eq i32 %4, 0
  br i1 %.not5, label %11, label %5

5:                                                ; preds = %3
  %6 = tail call i32 @strcasecmp(ptr noundef %0, ptr noundef nonnull @.str.11) #30
  %.not6 = icmp eq i32 %6, 0
  br i1 %.not6, label %11, label %7

7:                                                ; preds = %5
  %8 = tail call i32 @strcasecmp(ptr noundef %0, ptr noundef nonnull @.str.240) #30
  %.not7 = icmp eq i32 %8, 0
  br i1 %.not7, label %11, label %9

9:                                                ; preds = %7
  %10 = tail call i32 @strcasecmp(ptr noundef %0, ptr noundef nonnull @.str.10) #30
  %.not8 = icmp eq i32 %10, 0
  %. = select i1 %.not8, i32 3, i32 -1
  br label %11

11:                                               ; preds = %9, %7, %5, %3, %1
  %.0 = phi i32 [ 0, %1 ], [ 1, %3 ], [ 1, %5 ], [ 2, %7 ], [ %., %9 ]
  ret i32 %.0
}